target datalayout = "e-m:e-p270:32:32-p271:32:32-p272:64:64-i64:64-i128:128-f80:128-n8:16:32:64-S128"
target triple = "x86_64-pc-linux-gnu"

%"class.std::optional" = type { %"struct.std::_Optional_base" }
%"struct.std::_Optional_base" = type { %"struct.std::_Optional_payload" }
%"struct.std::_Optional_payload" = type { %"struct.std::_Optional_payload_base.base", [7 x i8] }
%"struct.std::_Optional_payload_base.base" = type <{ %"union.std::_Optional_payload_base<const Luau::Type *>::_Storage", i8 }>
%"union.std::_Optional_payload_base<const Luau::Type *>::_Storage" = type { ptr }
%"class.std::__cxx11::basic_string" = type { %"struct.std::__cxx11::basic_string<char>::_Alloc_hider", i64, %union.anon }
%"struct.std::__cxx11::basic_string<char>::_Alloc_hider" = type { ptr }
%union.anon = type { i64, [8 x i8] }
%"class.std::optional.2" = type { %"struct.std::_Optional_base.3" }
%"struct.std::_Optional_base.3" = type { %"struct.std::_Optional_payload.5" }
%"struct.std::_Optional_payload.5" = type { %"struct.std::_Optional_payload.base.9", [7 x i8] }
%"struct.std::_Optional_payload.base.9" = type { %"struct.std::_Optional_payload_base.base.8" }
%"struct.std::_Optional_payload_base.base.8" = type <{ %"union.std::_Optional_payload_base<std::__cxx11::basic_string<char>>::_Storage", i8 }>
%"union.std::_Optional_payload_base<std::__cxx11::basic_string<char>>::_Storage" = type { %"class.std::__cxx11::basic_string" }
%"struct.Luau::Type" = type { %"class.Luau::Variant.113", i8, [7 x i8], %"class.std::optional.2", ptr }
%"class.Luau::Variant.113" = type { i32, [4 x i8], [336 x i8] }
%"struct.Luau::PrimitiveType" = type { i32, [4 x i8], %"class.std::optional" }

; Function Attrs: mustprogress nounwind uwtable
define linkonce_odr dso_local noundef ptr @_ZNK4Luau7VariantIJNS_9Unifiable5BoundIPKNS_4TypeEEENS1_5ErrorIS5_EENS_8FreeTypeENS_11GenericTypeENS_13PrimitiveTypeENS_13SingletonTypeENS_11BlockedTypeENS_20PendingExpansionTypeENS_12FunctionTypeENS_9TableTypeENS_13MetatableTypeENS_9ClassTypeENS_7AnyTypeENS_9UnionTypeENS_16IntersectionTypeENS_8LazyTypeENS_11UnknownTypeENS_9NeverTypeENS_12NegationTypeENS_12NoRefineTypeENS_24TypeFunctionInstanceTypeEEE6get_ifISB_EEPKT_v(ptr noundef nonnull align 8 dereferenceable(344) %0) #2 comdat align 2 {
  %2 = alloca ptr, align 8
  %3 = alloca i32, align 4
  store ptr %0, ptr %2, align 8, !tbaa !337
  %4 = load ptr, ptr %2, align 8
  call void @llvm.lifetime.start.p0(i64 4, ptr %3) #20
  store i32 4, ptr %3, align 4, !tbaa !4
  %5 = getelementptr inbounds nuw %"class.Luau::Variant.113", ptr %4, i32 0, i32 0
  %6 = load i32, ptr %5, align 8, !tbaa !339
  %7 = icmp eq i32 4, %6
  br i1 %7, label %8, label %10

8:                                                ; preds = %1
  %9 = getelementptr inbounds nuw %"class.Luau::Variant.113", ptr %4, i32 0, i32 2
  br label %11

10:                                               ; preds = %1
  br label %11

11:                                               ; preds = %10, %8
  %12 = phi ptr [ %9, %8 ], [ null, %10 ]
  call void @llvm.lifetime.end.p0(i64 4, ptr %3) #20
  ret ptr %12
}

; Function Attrs: mustprogress uwtable
define linkonce_odr dso_local noundef ptr @_ZN4Luau6get_ifINS_13PrimitiveTypeEJNS_9Unifiable5BoundIPKNS_4TypeEEENS2_5ErrorIS6_EENS_8FreeTypeENS_11GenericTypeES1_NS_13SingletonTypeENS_11BlockedTypeENS_20PendingExpansionTypeENS_12FunctionTypeENS_9TableTypeENS_13MetatableTypeENS_9ClassTypeENS_7AnyTypeENS_9UnionTypeENS_16IntersectionTypeENS_8LazyTypeENS_11UnknownTypeENS_9NeverTypeENS_12NegationTypeENS_12NoRefineTypeENS_24TypeFunctionInstanceTypeEEEEPKT_PKNS_7VariantIJDpT0_EEE(ptr noundef %0) #3 comdat {
  %2 = alloca ptr, align 8
  store ptr %0, ptr %2, align 8, !tbaa !337
  %3 = load ptr, ptr %2, align 8, !tbaa !337
  %4 = icmp ne ptr %3, null
  br i1 %4, label %5, label %8

5:                                                ; preds = %1
  %6 = load ptr, ptr %2, align 8, !tbaa !337
  %7 = call noundef ptr @_ZNK4Luau7VariantIJNS_9Unifiable5BoundIPKNS_4TypeEEENS1_5ErrorIS5_EENS_8FreeTypeENS_11GenericTypeENS_13PrimitiveTypeENS_13SingletonTypeENS_11BlockedTypeENS_20PendingExpansionTypeENS_12FunctionTypeENS_9TableTypeENS_13MetatableTypeENS_9ClassTypeENS_7AnyTypeENS_9UnionTypeENS_16IntersectionTypeENS_8LazyTypeENS_11UnknownTypeENS_9NeverTypeENS_12NegationTypeENS_12NoRefineTypeENS_24TypeFunctionInstanceTypeEEE6get_ifISB_EEPKT_v(ptr noundef nonnull align 8 dereferenceable(344) %6)
  br label %9

8:                                                ; preds = %1
  br label %9

9:                                                ; preds = %8, %5
  %10 = phi ptr [ %7, %5 ], [ null, %8 ]
  ret ptr %10
}

; Function Attrs: mustprogress uwtable
define linkonce_odr dso_local noundef ptr @_ZN4Luau3getINS_13PrimitiveTypeEEEPKT_PKNS_4TypeE(ptr noundef %0) #3 comdat {
  %2 = alloca ptr, align 8
  store ptr %0, ptr %2, align 8, !tbaa !29
  %3 = load ptr, ptr %2, align 8, !tbaa !29
  %4 = getelementptr inbounds nuw %"struct.Luau::Type", ptr %3, i32 0, i32 0
  %5 = call noundef ptr @_ZN4Luau6get_ifINS_13PrimitiveTypeEJNS_9Unifiable5BoundIPKNS_4TypeEEENS2_5ErrorIS6_EENS_8FreeTypeENS_11GenericTypeES1_NS_13SingletonTypeENS_11BlockedTypeENS_20PendingExpansionTypeENS_12FunctionTypeENS_9TableTypeENS_13MetatableTypeENS_9ClassTypeENS_7AnyTypeENS_9UnionTypeENS_16IntersectionTypeENS_8LazyTypeENS_11UnknownTypeENS_9NeverTypeENS_12NegationTypeENS_12NoRefineTypeENS_24TypeFunctionInstanceTypeEEEEPKT_PKNS_7VariantIJDpT0_EEE(ptr noundef %4)
  ret ptr %5
}

; Function Attrs: mustprogress uwtable
define dso_local noundef ptr @_ZN4Luau6followEPKNS_4TypeE(ptr noundef %0) #3 {
  %2 = alloca ptr, align 8
  store ptr %0, ptr %2, align 8, !tbaa !29
  %3 = load ptr, ptr %2, align 8, !tbaa !29
  %4 = call noundef ptr @_ZN4Luau6followEPKNS_4TypeENS_12FollowOptionE(ptr noundef %3, i32 noundef 0)
  ret ptr %4
}

; Function Attrs: mustprogress uwtable
define dso_local noundef zeroext i1 @_ZN4Luau6isPrimEPKNS_4TypeENS_13PrimitiveType4TypeE(ptr noundef %0, i32 noundef %1) #3 {
  %3 = alloca ptr, align 8
  %4 = alloca i32, align 4
  %5 = alloca ptr, align 8
  store ptr %0, ptr %3, align 8, !tbaa !29
  store i32 %1, ptr %4, align 4, !tbaa !97
  call void @llvm.lifetime.start.p0(i64 8, ptr %5) #20
  %6 = load ptr, ptr %3, align 8, !tbaa !29
  %7 = call noundef ptr @_ZN4Luau6followEPKNS_4TypeE(ptr noundef %6)
  %8 = call noundef ptr @_ZN4Luau3getINS_13PrimitiveTypeEEEPKT_PKNS_4TypeE(ptr noundef %7)
  store ptr %8, ptr %5, align 8, !tbaa !99
  %9 = load ptr, ptr %5, align 8, !tbaa !99
  %10 = icmp ne ptr %9, null
  br i1 %10, label %11, label %17

11:                                               ; preds = %2
  %12 = load ptr, ptr %5, align 8, !tbaa !99
  %13 = getelementptr inbounds nuw %"struct.Luau::PrimitiveType", ptr %12, i32 0, i32 0
  %14 = load i32, ptr %13, align 8, !tbaa !101
  %15 = load i32, ptr %4, align 4, !tbaa !97
  %16 = icmp eq i32 %14, %15
  br label %17

17:                                               ; preds = %11, %2
  %18 = phi i1 [ false, %2 ], [ %16, %11 ]
  call void @llvm.lifetime.end.p0(i64 8, ptr %5) #20
  ret i1 %18
}

; Function Attrs: mustprogress uwtable
define dso_local noundef zeroext i1 @_ZN4Luau8isBufferEPKNS_4TypeE(ptr noundef %0) #3 {
  %2 = alloca ptr, align 8
  store ptr %0, ptr %2, align 8, !tbaa !29
  %3 = load ptr, ptr %2, align 8, !tbaa !29
  %4 = call noundef zeroext i1 @_ZN4Luau6isPrimEPKNS_4TypeENS_13PrimitiveType4TypeE(ptr noundef %3, i32 noundef 7)
  ret i1 %4
}