; Function Attrs: mustprogress uwtable
define dso_local noundef zeroext i1 @_ZN4Luau8isBufferEPKNS_4TypeE(ptr noundef %0) local_unnamed_addr #2 {
  %2 = tail call noundef ptr @_ZN4Luau6followEPKNS_4TypeENS_12FollowOptionE(ptr noundef %0, i32 noundef 0)
  %.not.i.i.i = icmp eq ptr %2, null
  br i1 %.not.i.i.i, label %_ZN4Luau6isPrimEPKNS_4TypeENS_13PrimitiveType4TypeE.exit, label %3

3:                                                ; preds = %1
  %4 = load i32, ptr %2, align 8, !tbaa !8
  %5 = icmp eq i32 %4, 4
  br i1 %5, label %_ZN4Luau3getINS_13PrimitiveTypeEEEPKT_PKNS_4TypeE.exit.i, label %_ZN4Luau6isPrimEPKNS_4TypeENS_13PrimitiveType4TypeE.exit

_ZN4Luau3getINS_13PrimitiveTypeEEEPKT_PKNS_4TypeE.exit.i: ; preds = %3
  %6 = getelementptr inbounds nuw i8, ptr %2, i64 8
  %7 = load i32, ptr %6, align 8, !tbaa !62
  %8 = icmp eq i32 %7, 7
  br label %_ZN4Luau6isPrimEPKNS_4TypeENS_13PrimitiveType4TypeE.exit

_ZN4Luau6isPrimEPKNS_4TypeENS_13PrimitiveType4TypeE.exit: ; preds = %1, %3, %_ZN4Luau3getINS_13PrimitiveTypeEEEPKT_PKNS_4TypeE.exit.i
  %9 = phi i1 [ %8, %_ZN4Luau3getINS_13PrimitiveTypeEEEPKT_PKNS_4TypeE.exit.i ], [ false, %3 ], [ false, %1 ]
  ret i1 %9
}